target datalayout = "e-m:e-p270:32:32-p271:32:32-p272:64:64-i64:64-i128:128-f80:128-n8:16:32:64-S128"
target triple = "x86_64-pc-linux-gnu"

%struct.GVJ_s = type { ptr, ptr, ptr, ptr, ptr, ptr, i32, ptr, ptr, ptr, ptr, i64, i64, ptr, i32, %struct.gvplugin_active_render_s, %struct.gvplugin_active_device_s, %struct.gvplugin_active_loadimage_t, ptr, %struct.pointf_s, i8, ptr, i32, ptr, i8, ptr, i32, i32, i32, %struct.point, %struct.point, %struct.point, %struct.point, %struct.point, i32, %struct.boxf, %struct.pointf_s, %struct.boxf, %struct.boxf, %struct.pointf_s, %struct.pointf_s, double, i32, %struct.pointf_s, %struct.boxf, %struct.pointf_s, %struct.pointf_s, i32, i32, %struct.box, %struct.box, %struct.pointf_s, %struct.pointf_s, %struct.pointf_s, i8, i8, i8, i8, i8, i8, %struct.pointf_s, %struct.pointf_s, ptr, ptr, ptr, ptr, ptr, ptr, i64, ptr }
%struct.gvplugin_active_render_s = type { ptr, i32, ptr, ptr }
%struct.gvplugin_active_device_s = type { ptr, i32, ptr, ptr }
%struct.gvplugin_active_loadimage_t = type { ptr, i32, ptr }
%struct.point = type { i32, i32 }
%struct.boxf = type { %struct.pointf_s, %struct.pointf_s }
%struct.box = type { %struct.point, %struct.point }
%struct.pointf_s = type { double, double }
%struct.color_s = type { %union.anon, i32 }
%union.anon = type { [4 x double] }
%struct.gvrender_engine_s = type { ptr, ptr, ptr, ptr, ptr, ptr, ptr, ptr, ptr, ptr, ptr, ptr, ptr, ptr, ptr, ptr, ptr, ptr, ptr, ptr, ptr, ptr, ptr, ptr, ptr, ptr, ptr, ptr, ptr, ptr }
%struct.textspan_t = type { ptr, ptr, ptr, ptr, double, double, %struct.pointf_s, i8 }
%struct.obj_state_s = type { ptr, i32, %union.anon.0, i32, %struct.color_s, %struct.color_s, %struct.color_s, i32, double, i32, i32, double, ptr, double, double, double, ptr, ptr, ptr, ptr, ptr, ptr, ptr, ptr, ptr, ptr, ptr, ptr, ptr, ptr, ptr, ptr, ptr, i16, i32, i64, ptr, i64, ptr, ptr, i32, ptr, i32, ptr }
%union.anon.0 = type { ptr }

; Function Attrs: nounwind uwtable
define { double, double } @gvrender_ptf(ptr noundef %0, double %1, double %2) #0 {
  %4 = alloca %struct.pointf_s, align 8
  %5 = alloca %struct.pointf_s, align 8
  %6 = alloca ptr, align 8
  %7 = alloca %struct.pointf_s, align 8
  %8 = alloca %struct.pointf_s, align 8
  %9 = getelementptr inbounds nuw { double, double }, ptr %5, i32 0, i32 0
  store double %1, ptr %9, align 8
  %10 = getelementptr inbounds nuw { double, double }, ptr %5, i32 0, i32 1
  store double %2, ptr %10, align 8
  store ptr %0, ptr %6, align 8, !tbaa !3
  call void @llvm.lifetime.start.p0(i64 16, ptr %7) #15
  call void @llvm.lifetime.start.p0(i64 16, ptr %8) #15
  %11 = load ptr, ptr %6, align 8, !tbaa !3
  %12 = getelementptr inbounds nuw %struct.GVJ_s, ptr %11, i32 0, i32 52
  call void @llvm.memcpy.p0.p0.i64(ptr align 8 %7, ptr align 8 %12, i64 16, i1 false), !tbaa.struct !76
  %13 = load ptr, ptr %6, align 8, !tbaa !3
  %14 = getelementptr inbounds nuw %struct.GVJ_s, ptr %13, i32 0, i32 41
  %15 = load double, ptr %14, align 8, !tbaa !78
  %16 = load ptr, ptr %6, align 8, !tbaa !3
  %17 = getelementptr inbounds nuw %struct.GVJ_s, ptr %16, i32 0, i32 53
  %18 = getelementptr inbounds nuw %struct.pointf_s, ptr %17, i32 0, i32 0
  %19 = load double, ptr %18, align 8, !tbaa !79
  %20 = fmul double %15, %19
  %21 = getelementptr inbounds nuw %struct.pointf_s, ptr %8, i32 0, i32 0
  store double %20, ptr %21, align 8, !tbaa !80
  %22 = load ptr, ptr %6, align 8, !tbaa !3
  %23 = getelementptr inbounds nuw %struct.GVJ_s, ptr %22, i32 0, i32 41
  %24 = load double, ptr %23, align 8, !tbaa !78
  %25 = load ptr, ptr %6, align 8, !tbaa !3
  %26 = getelementptr inbounds nuw %struct.GVJ_s, ptr %25, i32 0, i32 53
  %27 = getelementptr inbounds nuw %struct.pointf_s, ptr %26, i32 0, i32 1
  %28 = load double, ptr %27, align 8, !tbaa !81
  %29 = fmul double %24, %28
  %30 = getelementptr inbounds nuw %struct.pointf_s, ptr %8, i32 0, i32 1
  store double %29, ptr %30, align 8, !tbaa !82
  %31 = load ptr, ptr %6, align 8, !tbaa !3
  %32 = getelementptr inbounds nuw %struct.GVJ_s, ptr %31, i32 0, i32 42
  %33 = load i32, ptr %32, align 8, !tbaa !83
  %34 = icmp ne i32 %33, 0
  br i1 %34, label %35, label %55

35:                                               ; preds = %3
  %36 = getelementptr inbounds nuw %struct.pointf_s, ptr %5, i32 0, i32 1
  %37 = load double, ptr %36, align 8, !tbaa !82
  %38 = getelementptr inbounds nuw %struct.pointf_s, ptr %7, i32 0, i32 1
  %39 = load double, ptr %38, align 8, !tbaa !82
  %40 = fadd double %37, %39
  %41 = fneg double %40
  %42 = getelementptr inbounds nuw %struct.pointf_s, ptr %8, i32 0, i32 0
  %43 = load double, ptr %42, align 8, !tbaa !80
  %44 = fmul double %41, %43
  %45 = getelementptr inbounds nuw %struct.pointf_s, ptr %4, i32 0, i32 0
  store double %44, ptr %45, align 8, !tbaa !80
  %46 = getelementptr inbounds nuw %struct.pointf_s, ptr %5, i32 0, i32 0
  %47 = load double, ptr %46, align 8, !tbaa !80
  %48 = getelementptr inbounds nuw %struct.pointf_s, ptr %7, i32 0, i32 0
  %49 = load double, ptr %48, align 8, !tbaa !80
  %50 = fadd double %47, %49
  %51 = getelementptr inbounds nuw %struct.pointf_s, ptr %8, i32 0, i32 1
  %52 = load double, ptr %51, align 8, !tbaa !82
  %53 = fmul double %50, %52
  %54 = getelementptr inbounds nuw %struct.pointf_s, ptr %4, i32 0, i32 1
  store double %53, ptr %54, align 8, !tbaa !82
  br label %74

55:                                               ; preds = %3
  %56 = getelementptr inbounds nuw %struct.pointf_s, ptr %5, i32 0, i32 0
  %57 = load double, ptr %56, align 8, !tbaa !80
  %58 = getelementptr inbounds nuw %struct.pointf_s, ptr %7, i32 0, i32 0
  %59 = load double, ptr %58, align 8, !tbaa !80
  %60 = fadd double %57, %59
  %61 = getelementptr inbounds nuw %struct.pointf_s, ptr %8, i32 0, i32 0
  %62 = load double, ptr %61, align 8, !tbaa !80
  %63 = fmul double %60, %62
  %64 = getelementptr inbounds nuw %struct.pointf_s, ptr %4, i32 0, i32 0
  store double %63, ptr %64, align 8, !tbaa !80
  %65 = getelementptr inbounds nuw %struct.pointf_s, ptr %5, i32 0, i32 1
  %66 = load double, ptr %65, align 8, !tbaa !82
  %67 = getelementptr inbounds nuw %struct.pointf_s, ptr %7, i32 0, i32 1
  %68 = load double, ptr %67, align 8, !tbaa !82
  %69 = fadd double %66, %68
  %70 = getelementptr inbounds nuw %struct.pointf_s, ptr %8, i32 0, i32 1
  %71 = load double, ptr %70, align 8, !tbaa !82
  %72 = fmul double %69, %71
  %73 = getelementptr inbounds nuw %struct.pointf_s, ptr %4, i32 0, i32 1
  store double %72, ptr %73, align 8, !tbaa !82
  br label %74

74:                                               ; preds = %55, %35
  call void @llvm.lifetime.end.p0(i64 16, ptr %8) #15
  call void @llvm.lifetime.end.p0(i64 16, ptr %7) #15
  %75 = load { double, double }, ptr %4, align 8
  ret { double, double } %75
}

; Function Attrs: nounwind uwtable
define void @gvrender_textspan(ptr noundef %0, double %1, double %2, ptr noundef %3) #0 {
  %5 = alloca %struct.pointf_s, align 8
  %6 = alloca ptr, align 8
  %7 = alloca ptr, align 8
  %8 = alloca ptr, align 8
  %9 = alloca %struct.pointf_s, align 8
  %10 = alloca %struct.pointf_s, align 8
  %11 = getelementptr inbounds nuw { double, double }, ptr %5, i32 0, i32 0
  store double %1, ptr %11, align 8
  %12 = getelementptr inbounds nuw { double, double }, ptr %5, i32 0, i32 1
  store double %2, ptr %12, align 8
  store ptr %0, ptr %6, align 8, !tbaa !3
  store ptr %3, ptr %7, align 8, !tbaa !38
  call void @llvm.lifetime.start.p0(i64 8, ptr %8) #15
  %13 = load ptr, ptr %6, align 8, !tbaa !3
  %14 = getelementptr inbounds nuw %struct.GVJ_s, ptr %13, i32 0, i32 15
  %15 = getelementptr inbounds nuw %struct.gvplugin_active_render_s, ptr %14, i32 0, i32 0
  %16 = load ptr, ptr %15, align 8, !tbaa !51
  store ptr %16, ptr %8, align 8, !tbaa !58
  call void @llvm.lifetime.start.p0(i64 16, ptr %9) #15
  %17 = load ptr, ptr %7, align 8, !tbaa !38
  %18 = getelementptr inbounds nuw %struct.textspan_t, ptr %17, i32 0, i32 0
  %19 = load ptr, ptr %18, align 8, !tbaa !113
  %20 = icmp ne ptr %19, null
  br i1 %20, label %21, label %79

21:                                               ; preds = %4
  %22 = load ptr, ptr %7, align 8, !tbaa !38
  %23 = getelementptr inbounds nuw %struct.textspan_t, ptr %22, i32 0, i32 0
  %24 = load ptr, ptr %23, align 8, !tbaa !113
  %25 = getelementptr inbounds i8, ptr %24, i64 0
  %26 = load i8, ptr %25, align 1, !tbaa !115
  %27 = sext i8 %26 to i32
  %28 = icmp ne i32 %27, 0
  br i1 %28, label %29, label %79

29:                                               ; preds = %21
  %30 = load ptr, ptr %6, align 8, !tbaa !3
  %31 = getelementptr inbounds nuw %struct.GVJ_s, ptr %30, i32 0, i32 4
  %32 = load ptr, ptr %31, align 8, !tbaa !116
  %33 = icmp ne ptr %32, null
  br i1 %33, label %34, label %41

34:                                               ; preds = %29
  %35 = load ptr, ptr %6, align 8, !tbaa !3
  %36 = getelementptr inbounds nuw %struct.GVJ_s, ptr %35, i32 0, i32 4
  %37 = load ptr, ptr %36, align 8, !tbaa !116
  %38 = getelementptr inbounds nuw %struct.obj_state_s, ptr %37, i32 0, i32 9
  %39 = load i32, ptr %38, align 8, !tbaa !117
  %40 = icmp ne i32 %39, 0
  br i1 %40, label %41, label %79

41:                                               ; preds = %34, %29
  %42 = load ptr, ptr %6, align 8, !tbaa !3
  %43 = getelementptr inbounds nuw %struct.GVJ_s, ptr %42, i32 0, i32 26
  %44 = load i32, ptr %43, align 8, !tbaa !50
  %45 = and i32 %44, 8192
  %46 = icmp ne i32 %45, 0
  br i1 %46, label %47, label %48

47:                                               ; preds = %41
  call void @llvm.memcpy.p0.p0.i64(ptr align 8 %9, ptr align 8 %5, i64 16, i1 false), !tbaa.struct !76
  br label %59

48:                                               ; preds = %41
  call void @llvm.lifetime.start.p0(i64 16, ptr %10) #15
  %49 = load ptr, ptr %6, align 8, !tbaa !3
  %50 = getelementptr inbounds nuw { double, double }, ptr %5, i32 0, i32 0
  %51 = load double, ptr %50, align 8
  %52 = getelementptr inbounds nuw { double, double }, ptr %5, i32 0, i32 1
  %53 = load double, ptr %52, align 8
  %54 = call { double, double } @gvrender_ptf(ptr noundef %49, double %51, double %53)
  %55 = getelementptr inbounds nuw { double, double }, ptr %10, i32 0, i32 0
  %56 = extractvalue { double, double } %54, 0
  store double %56, ptr %55, align 8
  %57 = getelementptr inbounds nuw { double, double }, ptr %10, i32 0, i32 1
  %58 = extractvalue { double, double } %54, 1
  store double %58, ptr %57, align 8
  call void @llvm.memcpy.p0.p0.i64(ptr align 8 %9, ptr align 8 %10, i64 16, i1 false), !tbaa.struct !76
  call void @llvm.lifetime.end.p0(i64 16, ptr %10) #15
  br label %59

59:                                               ; preds = %48, %47
  %60 = load ptr, ptr %8, align 8, !tbaa !58
  %61 = icmp ne ptr %60, null
  br i1 %61, label %62, label %78

62:                                               ; preds = %59
  %63 = load ptr, ptr %8, align 8, !tbaa !58
  %64 = getelementptr inbounds nuw %struct.gvrender_engine_s, ptr %63, i32 0, i32 22
  %65 = load ptr, ptr %64, align 8, !tbaa !120
  %66 = icmp ne ptr %65, null
  br i1 %66, label %67, label %77

67:                                               ; preds = %62
  %68 = load ptr, ptr %8, align 8, !tbaa !58
  %69 = getelementptr inbounds nuw %struct.gvrender_engine_s, ptr %68, i32 0, i32 22
  %70 = load ptr, ptr %69, align 8, !tbaa !120
  %71 = load ptr, ptr %6, align 8, !tbaa !3
  %72 = load ptr, ptr %7, align 8, !tbaa !38
  %73 = getelementptr inbounds nuw { double, double }, ptr %9, i32 0, i32 0
  %74 = load double, ptr %73, align 8
  %75 = getelementptr inbounds nuw { double, double }, ptr %9, i32 0, i32 1
  %76 = load double, ptr %75, align 8
  call void %70(ptr noundef %71, double %74, double %76, ptr noundef %72)
  br label %77

77:                                               ; preds = %67, %62
  br label %78

78:                                               ; preds = %77, %59
  br label %79

79:                                               ; preds = %78, %34, %21, %4
  call void @llvm.lifetime.end.p0(i64 16, ptr %9) #15
  call void @llvm.lifetime.end.p0(i64 8, ptr %8) #15
  ret void
}