; Function Attrs: nounwind uwtable
define void @gvrender_textspan(ptr noundef %0, double %1, double %2, ptr noundef %3) local_unnamed_addr #0 {
  %5 = getelementptr inbounds nuw i8, ptr %0, i64 120
  %6 = load ptr, ptr %5, align 8, !tbaa !47
  %7 = load ptr, ptr %3, align 8, !tbaa !104
  %.not = icmp eq ptr %7, null
  br i1 %.not, label %46, label %8

8:                                                ; preds = %4
  %9 = load i8, ptr %7, align 1, !tbaa !106
  %.not17 = icmp eq i8 %9, 0
  br i1 %.not17, label %46, label %10

10:                                               ; preds = %8
  %11 = getelementptr inbounds nuw i8, ptr %0, i64 32
  %12 = load ptr, ptr %11, align 8, !tbaa !107
  %.not18 = icmp eq ptr %12, null
  br i1 %.not18, label %16, label %13

13:                                               ; preds = %10
  %14 = getelementptr inbounds nuw i8, ptr %12, i64 168
  %15 = load i32, ptr %14, align 8, !tbaa !108
  %.not19 = icmp eq i32 %15, 0
  br i1 %.not19, label %46, label %16

16:                                               ; preds = %13, %10
  %17 = getelementptr inbounds nuw i8, ptr %0, i64 280
  %18 = load i32, ptr %17, align 8, !tbaa !46
  %19 = and i32 %18, 8192
  %.not20 = icmp eq i32 %19, 0
  br i1 %.not20, label %20, label %41

20:                                               ; preds = %16
  %21 = getelementptr inbounds nuw i8, ptr %0, i64 632
  %.sroa.03.0.copyload.i = load double, ptr %21, align 8, !tbaa !70
  %.sroa.55.0..sroa_idx.i = getelementptr inbounds nuw i8, ptr %0, i64 640
  %.sroa.55.0.copyload.i = load double, ptr %.sroa.55.0..sroa_idx.i, align 8, !tbaa !70
  %22 = getelementptr inbounds nuw i8, ptr %0, i64 480
  %23 = load double, ptr %22, align 8, !tbaa !71
  %24 = getelementptr inbounds nuw i8, ptr %0, i64 648
  %25 = load double, ptr %24, align 8, !tbaa !72
  %26 = fmul double %23, %25
  %27 = getelementptr inbounds nuw i8, ptr %0, i64 656
  %28 = load double, ptr %27, align 8, !tbaa !73
  %29 = getelementptr inbounds nuw i8, ptr %0, i64 488
  %30 = load i32, ptr %29, align 8, !tbaa !74
  %.not.i = icmp eq i32 %30, 0
  br i1 %.not.i, label %36, label %31

31:                                               ; preds = %20
  %32 = fadd double %2, %.sroa.55.0.copyload.i
  %33 = fneg double %32
  %34 = fmul double %26, %33
  %35 = fadd double %1, %.sroa.03.0.copyload.i
  br label %gvrender_ptf.exit

36:                                               ; preds = %20
  %37 = fadd double %1, %.sroa.03.0.copyload.i
  %38 = fmul double %37, %26
  %39 = fadd double %2, %.sroa.55.0.copyload.i
  br label %gvrender_ptf.exit

gvrender_ptf.exit:                                ; preds = %31, %36
  %.sroa.015.0.i = phi double [ %34, %31 ], [ %38, %36 ]
  %.pn.i = phi double [ %35, %31 ], [ %39, %36 ]
  %40 = fmul double %23, %28
  %.sroa.316.0.i = fmul double %40, %.pn.i
  br label %41

41:                                               ; preds = %16, %gvrender_ptf.exit
  %.sroa.01.0 = phi double [ %.sroa.015.0.i, %gvrender_ptf.exit ], [ %1, %16 ]
  %.sroa.5.0 = phi double [ %.sroa.316.0.i, %gvrender_ptf.exit ], [ %2, %16 ]
  %.not21 = icmp eq ptr %6, null
  br i1 %.not21, label %46, label %42

42:                                               ; preds = %41
  %43 = getelementptr inbounds nuw i8, ptr %6, i64 176
  %44 = load ptr, ptr %43, align 8, !tbaa !112
  %.not22 = icmp eq ptr %44, null
  br i1 %.not22, label %46, label %45

45:                                               ; preds = %42
  tail call void %44(ptr noundef nonnull %0, double %.sroa.01.0, double %.sroa.5.0, ptr noundef nonnull %3) #22
  br label %46

46:                                               ; preds = %41, %45, %42, %13, %8, %4
  ret void
}